; Function Attrs: mustprogress uwtable
define void @_Z27ulocimp_addLikelySubtags_77PKcR10UErrorCode(ptr dead_on_unwind noalias writable sret(%"class.icu_77::CharString") align 8 %0, ptr noundef %1, ptr noundef nonnull align 4 dereferenceable(4) %2) local_unnamed_addr #1 personality ptr @__gxx_personality_v0 {
  %4 = alloca %"class.icu_77::CharStringByteSink", align 8
  tail call void @llvm.experimental.noalias.scope.decl(metadata !19)
  %5 = load i32, ptr %2, align 4, !tbaa !13, !noalias !19
  %6 = icmp slt i32 %5, 1
  tail call void @_ZN6icu_7715MaybeStackArrayIcLi40EEC1Ev(ptr noundef nonnull align 8 dereferenceable(60) %0)
  %7 = getelementptr inbounds nuw i8, ptr %0, i64 56
  store i32 0, ptr %7, align 8, !tbaa !22, !alias.scope !19
  %8 = load ptr, ptr %0, align 8, !tbaa !3, !alias.scope !19
  store i8 0, ptr %8, align 1, !tbaa !24
  br i1 %6, label %9, label %"_ZN6icu_7712ByteSinkUtil23viaByteSinkToCharStringIZ27ulocimp_addLikelySubtags_77PKcR10UErrorCodeE3$_0vEENS_10CharStringEOT_S5_.exit"

9:                                                ; preds = %3
  call void @llvm.lifetime.start.p0(i64 16, ptr nonnull %4) #18, !noalias !19
  invoke void @_ZN6icu_7718CharStringByteSinkC1EPNS_10CharStringE(ptr noundef nonnull align 8 dereferenceable(16) %4, ptr noundef nonnull align 8 %0)
          to label %10 unwind label %11

10:                                               ; preds = %9
  invoke void @_Z27ulocimp_addLikelySubtags_77PKcRN6icu_778ByteSinkER10UErrorCode(ptr noundef %1, ptr noundef nonnull align 8 dereferenceable(8) %4, ptr noundef nonnull align 4 dereferenceable(4) %2)
          to label %"_ZZ27ulocimp_addLikelySubtags_77PKcR10UErrorCodeENK3$_0clERN6icu_778ByteSinkES2_.exit.i" unwind label %13

"_ZZ27ulocimp_addLikelySubtags_77PKcR10UErrorCodeENK3$_0clERN6icu_778ByteSinkES2_.exit.i": ; preds = %10
  call void @_ZN6icu_7718CharStringByteSinkD1Ev(ptr noundef nonnull align 8 dereferenceable(16) %4) #18
  call void @llvm.lifetime.end.p0(i64 16, ptr nonnull %4) #18, !noalias !19
  br label %"_ZN6icu_7712ByteSinkUtil23viaByteSinkToCharStringIZ27ulocimp_addLikelySubtags_77PKcR10UErrorCodeE3$_0vEENS_10CharStringEOT_S5_.exit"

11:                                               ; preds = %9
  %12 = landingpad { ptr, i32 }
          cleanup
  br label %15

13:                                               ; preds = %10
  %14 = landingpad { ptr, i32 }
          cleanup
  call void @_ZN6icu_7718CharStringByteSinkD1Ev(ptr noundef nonnull align 8 dereferenceable(16) %4) #18
  br label %15

15:                                               ; preds = %13, %11
  %.pn.i = phi { ptr, i32 } [ %14, %13 ], [ %12, %11 ]
  call void @llvm.lifetime.end.p0(i64 16, ptr nonnull %4) #18, !noalias !19
  call void @_ZN6icu_7715MaybeStackArrayIcLi40EED1Ev(ptr noundef nonnull align 8 dereferenceable(60) %0) #18
  resume { ptr, i32 } %.pn.i

"_ZN6icu_7712ByteSinkUtil23viaByteSinkToCharStringIZ27ulocimp_addLikelySubtags_77PKcR10UErrorCodeE3$_0vEENS_10CharStringEOT_S5_.exit": ; preds = %3, %"_ZZ27ulocimp_addLikelySubtags_77PKcR10UErrorCodeENK3$_0clERN6icu_778ByteSinkES2_.exit.i"
  ret void
}